target datalayout = "e-m:e-p270:32:32-p271:32:32-p272:64:64-i64:64-i128:128-f80:128-n8:16:32:64-S128"
target triple = "x86_64-pc-linux-gnu"

%struct.yyjson_alc = type { ptr, ptr, ptr, ptr }
%struct.yyjson_str_pool = type { ptr, ptr, i64, i64, ptr }
%struct.yyjson_val_pool = type { ptr, ptr, i64, i64, ptr }
%struct.yyjson_mut_doc = type { ptr, %struct.yyjson_alc, %struct.yyjson_str_pool, %struct.yyjson_val_pool }
%struct.yyjson_write_err = type { i32, ptr }

@YYJSON_DEFAULT_ALC = internal constant %struct.yyjson_alc { ptr @default_malloc, ptr @default_realloc, ptr @default_free, ptr null }, align 8
@.str.42 = private unnamed_addr constant [20 x i8] c"input fp is invalid\00", align 1
@.str.103 = private unnamed_addr constant [20 x i8] c"file writing failed\00", align 1

; Function Attrs: nounwind uwtable
define internal zeroext i1 @write_dat_to_fp(ptr noundef %0, ptr noundef %1, i64 noundef %2, ptr noundef %3) #0 {
  %5 = alloca i1, align 1
  %6 = alloca ptr, align 8
  %7 = alloca ptr, align 8
  %8 = alloca i64, align 8
  %9 = alloca ptr, align 8
  store ptr %0, ptr %6, align 8, !tbaa !223
  store ptr %1, ptr %7, align 8, !tbaa !92
  store i64 %2, ptr %8, align 8, !tbaa !10
  store ptr %3, ptr %9, align 8, !tbaa !238
  %10 = load ptr, ptr %7, align 8, !tbaa !92
  %11 = load i64, ptr %8, align 8, !tbaa !10
  %12 = load ptr, ptr %6, align 8, !tbaa !223
  %13 = call i64 @fwrite(ptr noundef %10, i64 noundef %11, i64 noundef 1, ptr noundef %12)
  %14 = icmp ne i64 %13, 1
  br i1 %14, label %15, label %20

15:                                               ; preds = %4
  %16 = load ptr, ptr %9, align 8, !tbaa !238
  %17 = getelementptr inbounds nuw %struct.yyjson_write_err, ptr %16, i32 0, i32 1
  store ptr @.str.103, ptr %17, align 8, !tbaa !240
  %18 = load ptr, ptr %9, align 8, !tbaa !238
  %19 = getelementptr inbounds nuw %struct.yyjson_write_err, ptr %18, i32 0, i32 0
  store i32 6, ptr %19, align 8, !tbaa !242
  store i1 false, ptr %5, align 1
  br label %21

20:                                               ; preds = %4
  store i1 true, ptr %5, align 1
  br label %21

21:                                               ; preds = %20, %15
  %22 = load i1, ptr %5, align 1
  ret i1 %22
}

; Function Attrs: nounwind uwtable
define dso_local ptr @yyjson_mut_val_write_opts(ptr noundef %0, i32 noundef %1, ptr noundef %2, ptr noundef %3, ptr noundef %4) #0 {
  %6 = alloca ptr, align 8
  %7 = alloca i32, align 4
  %8 = alloca ptr, align 8
  %9 = alloca ptr, align 8
  %10 = alloca ptr, align 8
  store ptr %0, ptr %6, align 8, !tbaa !85
  store i32 %1, ptr %7, align 4, !tbaa !174
  store ptr %2, ptr %8, align 8, !tbaa !4
  store ptr %3, ptr %9, align 8, !tbaa !107
  store ptr %4, ptr %10, align 8, !tbaa !238
  %11 = load ptr, ptr %6, align 8, !tbaa !85
  %12 = load i32, ptr %7, align 4, !tbaa !174
  %13 = load ptr, ptr %8, align 8, !tbaa !4
  %14 = load ptr, ptr %9, align 8, !tbaa !107
  %15 = load ptr, ptr %10, align 8, !tbaa !238
  %16 = call ptr @yyjson_mut_write_opts_impl(ptr noundef %11, i64 noundef 0, i32 noundef %12, ptr noundef %13, ptr noundef %14, ptr noundef %15)
  ret ptr %16
}

; Function Attrs: nounwind uwtable
define dso_local zeroext i1 @yyjson_mut_val_write_fp(ptr noundef %0, ptr noundef %1, i32 noundef %2, ptr noundef %3, ptr noundef %4) #0 {
  %6 = alloca i1, align 1
  %7 = alloca ptr, align 8
  %8 = alloca ptr, align 8
  %9 = alloca i32, align 4
  %10 = alloca ptr, align 8
  %11 = alloca ptr, align 8
  %12 = alloca %struct.yyjson_write_err, align 8
  %13 = alloca ptr, align 8
  %14 = alloca i64, align 8
  %15 = alloca ptr, align 8
  %16 = alloca i8, align 1
  %17 = alloca i32, align 4
  store ptr %0, ptr %7, align 8, !tbaa !223
  store ptr %1, ptr %8, align 8, !tbaa !85
  store i32 %2, ptr %9, align 4, !tbaa !174
  store ptr %3, ptr %10, align 8, !tbaa !4
  store ptr %4, ptr %11, align 8, !tbaa !238
  call void @llvm.lifetime.start.p0(i64 16, ptr %12) #13
  call void @llvm.lifetime.start.p0(i64 8, ptr %13) #13
  call void @llvm.lifetime.start.p0(i64 8, ptr %14) #13
  store i64 0, ptr %14, align 8, !tbaa !10
  call void @llvm.lifetime.start.p0(i64 8, ptr %15) #13
  %18 = load ptr, ptr %8, align 8, !tbaa !85
  %19 = ptrtoint ptr %18 to i64
  %20 = inttoptr i64 %19 to ptr
  store ptr %20, ptr %15, align 8, !tbaa !85
  call void @llvm.lifetime.start.p0(i64 1, ptr %16) #13
  %21 = load ptr, ptr %10, align 8, !tbaa !4
  %22 = icmp ne ptr %21, null
  br i1 %22, label %23, label %25

23:                                               ; preds = %5
  %24 = load ptr, ptr %10, align 8, !tbaa !4
  br label %26

25:                                               ; preds = %5
  br label %26

26:                                               ; preds = %25, %23
  %27 = phi ptr [ %24, %23 ], [ @YYJSON_DEFAULT_ALC, %25 ]
  store ptr %27, ptr %10, align 8, !tbaa !4
  %28 = load ptr, ptr %11, align 8, !tbaa !238
  %29 = icmp ne ptr %28, null
  br i1 %29, label %30, label %32

30:                                               ; preds = %26
  %31 = load ptr, ptr %11, align 8, !tbaa !238
  br label %33

32:                                               ; preds = %26
  br label %33

33:                                               ; preds = %32, %30
  %34 = phi ptr [ %31, %30 ], [ %12, %32 ]
  store ptr %34, ptr %11, align 8, !tbaa !238
  %35 = load ptr, ptr %7, align 8, !tbaa !223
  %36 = icmp ne ptr %35, null
  %37 = xor i1 %36, true
  %38 = xor i1 %37, true
  %39 = xor i1 %38, true
  %40 = zext i1 %39 to i32
  %41 = sext i32 %40 to i64
  %42 = call i64 @llvm.expect.i64(i64 %41, i64 0)
  %43 = icmp ne i64 %42, 0
  br i1 %43, label %44, label %49

44:                                               ; preds = %33
  %45 = load ptr, ptr %11, align 8, !tbaa !238
  %46 = getelementptr inbounds nuw %struct.yyjson_write_err, ptr %45, i32 0, i32 1
  store ptr @.str.42, ptr %46, align 8, !tbaa !240
  %47 = load ptr, ptr %11, align 8, !tbaa !238
  %48 = getelementptr inbounds nuw %struct.yyjson_write_err, ptr %47, i32 0, i32 0
  store i32 1, ptr %48, align 8, !tbaa !242
  store i1 false, ptr %6, align 1
  store i32 1, ptr %17, align 4
  br label %81

49:                                               ; preds = %33
  %50 = load ptr, ptr %15, align 8, !tbaa !85
  %51 = load i32, ptr %9, align 4, !tbaa !174
  %52 = load ptr, ptr %10, align 8, !tbaa !4
  %53 = load ptr, ptr %11, align 8, !tbaa !238
  %54 = call ptr @yyjson_mut_val_write_opts(ptr noundef %50, i32 noundef %51, ptr noundef %52, ptr noundef %14, ptr noundef %53)
  store ptr %54, ptr %13, align 8, !tbaa !92
  %55 = load ptr, ptr %13, align 8, !tbaa !92
  %56 = icmp ne ptr %55, null
  %57 = xor i1 %56, true
  %58 = xor i1 %57, true
  %59 = xor i1 %58, true
  %60 = zext i1 %59 to i32
  %61 = sext i32 %60 to i64
  %62 = call i64 @llvm.expect.i64(i64 %61, i64 0)
  %63 = icmp ne i64 %62, 0
  br i1 %63, label %64, label %65

64:                                               ; preds = %49
  store i1 false, ptr %6, align 1
  store i32 1, ptr %17, align 4
  br label %81

65:                                               ; preds = %49
  %66 = load ptr, ptr %7, align 8, !tbaa !223
  %67 = load ptr, ptr %13, align 8, !tbaa !92
  %68 = load i64, ptr %14, align 8, !tbaa !10
  %69 = load ptr, ptr %11, align 8, !tbaa !238
  %70 = call zeroext i1 @write_dat_to_fp(ptr noundef %66, ptr noundef %67, i64 noundef %68, ptr noundef %69)
  %71 = zext i1 %70 to i8
  store i8 %71, ptr %16, align 1, !tbaa !98
  %72 = load ptr, ptr %10, align 8, !tbaa !4
  %73 = getelementptr inbounds nuw %struct.yyjson_alc, ptr %72, i32 0, i32 2
  %74 = load ptr, ptr %73, align 8, !tbaa !26
  %75 = load ptr, ptr %10, align 8, !tbaa !4
  %76 = getelementptr inbounds nuw %struct.yyjson_alc, ptr %75, i32 0, i32 3
  %77 = load ptr, ptr %76, align 8, !tbaa !27
  %78 = load ptr, ptr %13, align 8, !tbaa !92
  call void %74(ptr noundef %77, ptr noundef %78)
  %79 = load i8, ptr %16, align 1, !tbaa !98, !range !100, !noundef !101
  %80 = trunc i8 %79 to i1
  store i1 %80, ptr %6, align 1
  store i32 1, ptr %17, align 4
  br label %81

81:                                               ; preds = %65, %64, %44
  call void @llvm.lifetime.end.p0(i64 1, ptr %16) #13
  call void @llvm.lifetime.end.p0(i64 8, ptr %15) #13
  call void @llvm.lifetime.end.p0(i64 8, ptr %14) #13
  call void @llvm.lifetime.end.p0(i64 8, ptr %13) #13
  call void @llvm.lifetime.end.p0(i64 16, ptr %12) #13
  %82 = load i1, ptr %6, align 1
  ret i1 %82
}

; Function Attrs: nounwind uwtable
define dso_local zeroext i1 @yyjson_mut_write_fp(ptr noundef %0, ptr noundef %1, i32 noundef %2, ptr noundef %3, ptr noundef %4) #0 {
  %6 = alloca ptr, align 8
  %7 = alloca ptr, align 8
  %8 = alloca i32, align 4
  %9 = alloca ptr, align 8
  %10 = alloca ptr, align 8
  %11 = alloca ptr, align 8
  store ptr %0, ptr %6, align 8, !tbaa !223
  store ptr %1, ptr %7, align 8, !tbaa !71
  store i32 %2, ptr %8, align 4, !tbaa !174
  store ptr %3, ptr %9, align 8, !tbaa !4
  store ptr %4, ptr %10, align 8, !tbaa !238
  call void @llvm.lifetime.start.p0(i64 8, ptr %11) #13
  %12 = load ptr, ptr %7, align 8, !tbaa !71
  %13 = icmp ne ptr %12, null
  br i1 %13, label %14, label %18

14:                                               ; preds = %5
  %15 = load ptr, ptr %7, align 8, !tbaa !71
  %16 = getelementptr inbounds nuw %struct.yyjson_mut_doc, ptr %15, i32 0, i32 0
  %17 = load ptr, ptr %16, align 8, !tbaa !97
  br label %19

18:                                               ; preds = %5
  br label %19

19:                                               ; preds = %18, %14
  %20 = phi ptr [ %17, %14 ], [ null, %18 ]
  store ptr %20, ptr %11, align 8, !tbaa !85
  %21 = load ptr, ptr %6, align 8, !tbaa !223
  %22 = load ptr, ptr %11, align 8, !tbaa !85
  %23 = load i32, ptr %8, align 4, !tbaa !174
  %24 = load ptr, ptr %9, align 8, !tbaa !4
  %25 = load ptr, ptr %10, align 8, !tbaa !238
  %26 = call zeroext i1 @yyjson_mut_val_write_fp(ptr noundef %21, ptr noundef %22, i32 noundef %23, ptr noundef %24, ptr noundef %25)
  call void @llvm.lifetime.end.p0(i64 8, ptr %11) #13
  ret i1 %26
}