; Function Attrs: nounwind uwtable
define dso_local noundef zeroext i1 @yyjson_mut_write_fp(ptr noundef captures(address_is_null) %0, ptr noundef readonly captures(address_is_null) %1, i32 noundef %2, ptr noundef captures(address_is_null) %3, ptr noundef captures(address_is_null) %4) local_unnamed_addr #8 {
  %6 = alloca %struct.yyjson_write_err, align 8
  %7 = alloca i64, align 8
  %.not = icmp eq ptr %1, null
  br i1 %.not, label %10, label %8

8:                                                ; preds = %5
  %9 = load ptr, ptr %1, align 8, !tbaa !72
  br label %10

10:                                               ; preds = %5, %8
  %11 = phi ptr [ %9, %8 ], [ null, %5 ]
  call void @llvm.lifetime.start.p0(i64 16, ptr nonnull %6) #31
  call void @llvm.lifetime.start.p0(i64 8, ptr nonnull %7) #31
  store i64 0, ptr %7, align 8, !tbaa !85
  %.not.i = icmp eq ptr %3, null
  %12 = select i1 %.not.i, ptr @YYJSON_DEFAULT_ALC, ptr %3
  %.not20.i = icmp eq ptr %4, null
  %13 = select i1 %.not20.i, ptr %6, ptr %4
  %.not21.i = icmp eq ptr %0, null
  br i1 %.not21.i, label %14, label %15, !prof !4

14:                                               ; preds = %10
  %.sroa.sel.v.sroa.sel.v.i.sroa.sel.v.sroa.sel.v.sroa.sel.v = select i1 %.not20.i, ptr %6, ptr %4
  %.sroa.sel.v.sroa.sel.v.i.sroa.sel.v.sroa.sel.v.sroa.sel = getelementptr inbounds nuw i8, ptr %.sroa.sel.v.sroa.sel.v.i.sroa.sel.v.sroa.sel.v.sroa.sel.v, i64 8
  store ptr @.str.42, ptr %.sroa.sel.v.sroa.sel.v.i.sroa.sel.v.sroa.sel.v.sroa.sel, align 8, !tbaa !204
  store i32 1, ptr %13, align 8, !tbaa !206
  br label %yyjson_mut_val_write_fp.exit

15:                                               ; preds = %10
  %16 = call fastcc ptr @yyjson_mut_write_opts_impl(ptr noundef %11, i64 noundef 0, i32 noundef %2, ptr noundef nonnull %12, ptr noundef nonnull %7, ptr noundef nonnull %13)
  %.not22.i = icmp eq ptr %16, null
  br i1 %.not22.i, label %yyjson_mut_val_write_fp.exit, label %17, !prof !4

17:                                               ; preds = %15
  %18 = load i64, ptr %7, align 8, !tbaa !85
  %19 = call i64 @fwrite(ptr noundef nonnull %16, i64 noundef %18, i64 noundef 1, ptr noundef nonnull %0)
  %.not.i.i = icmp eq i64 %19, 1
  br i1 %.not.i.i, label %write_dat_to_fp.exit.i, label %20

20:                                               ; preds = %17
  %.sroa.sel26.v.sroa.sel.v.i.sroa.sel.v.sroa.sel.v.sroa.sel.v = select i1 %.not20.i, ptr %6, ptr %4
  %.sroa.sel26.v.sroa.sel.v.i.sroa.sel.v.sroa.sel.v.sroa.sel = getelementptr inbounds nuw i8, ptr %.sroa.sel26.v.sroa.sel.v.i.sroa.sel.v.sroa.sel.v.sroa.sel.v, i64 8
  store ptr @.str.103, ptr %.sroa.sel26.v.sroa.sel.v.i.sroa.sel.v.sroa.sel.v.sroa.sel, align 8, !tbaa !204
  store i32 6, ptr %13, align 8, !tbaa !206
  br label %write_dat_to_fp.exit.i

write_dat_to_fp.exit.i:                           ; preds = %20, %17
  %21 = getelementptr inbounds nuw i8, ptr %12, i64 16
  %22 = load ptr, ptr %21, align 8, !tbaa !21
  %23 = getelementptr inbounds nuw i8, ptr %12, i64 24
  %24 = load ptr, ptr %23, align 8, !tbaa !22
  call void %22(ptr noundef %24, ptr noundef nonnull %16) #31
  br label %yyjson_mut_val_write_fp.exit

yyjson_mut_val_write_fp.exit:                     ; preds = %14, %15, %write_dat_to_fp.exit.i
  %.0.i = phi i1 [ false, %14 ], [ %.not.i.i, %write_dat_to_fp.exit.i ], [ false, %15 ]
  call void @llvm.lifetime.end.p0(i64 8, ptr nonnull %7) #31
  call void @llvm.lifetime.end.p0(i64 16, ptr nonnull %6) #31
  ret i1 %.0.i
}